target datalayout = "e-m:e-p270:32:32-p271:32:32-p272:64:64-i64:64-i128:128-f80:128-n8:16:32:64-S128"
target triple = "x86_64-pc-linux-gnu"

%struct.gvplugin_available_s = type { ptr, ptr, i32, ptr, ptr }
%struct.gvplugin_installed_t = type { i32, ptr, i32, ptr, ptr }
%struct.GVC_s = type { %struct.GVCOMMON_s, ptr, i8, ptr, i32, ptr, ptr, [5 x ptr], [5 x ptr], ptr, ptr, %struct.dtdisc_s_, ptr, %struct.gvplugin_active_textlayout_s, ptr, ptr, ptr, %struct.gvplugin_active_layout_s, ptr, ptr, ptr, %struct.pointf_s, %struct.pointf_s, %struct.pointf_s, %struct.point, %struct.boxf, i32, i8, i8, i8, ptr, ptr, ptr, ptr, i32, ptr, ptr, double, ptr, %struct.color_s, i32 }
%struct.GVCOMMON_s = type { ptr, ptr, i32, i8, i8, ptr, ptr, ptr, i32, ptr, i32 }
%struct.dtdisc_s_ = type { i32, i32, i32, ptr, ptr, ptr }
%struct.gvplugin_active_textlayout_s = type { ptr, i32, ptr }
%struct.gvplugin_active_layout_s = type { ptr, i32, ptr, ptr }
%struct.pointf_s = type { double, double }
%struct.point = type { i32, i32 }
%struct.boxf = type { %struct.pointf_s, %struct.pointf_s }
%struct.color_s = type { %union.anon, i32 }
%union.anon = type { [4 x double] }

; Function Attrs: nounwind uwtable
define i32 @gvlayout_select(ptr noundef %0, ptr noundef %1) #0 {
  %3 = alloca i32, align 4
  %4 = alloca ptr, align 8
  %5 = alloca ptr, align 8
  %6 = alloca ptr, align 8
  %7 = alloca ptr, align 8
  %8 = alloca i32, align 4
  store ptr %0, ptr %4, align 8, !tbaa !3
  store ptr %1, ptr %5, align 8, !tbaa !8
  call void @llvm.lifetime.start.p0(i64 8, ptr %6) #3
  call void @llvm.lifetime.start.p0(i64 8, ptr %7) #3
  %9 = load ptr, ptr %4, align 8, !tbaa !3
  %10 = load ptr, ptr %5, align 8, !tbaa !8
  %11 = call ptr @gvplugin_load(ptr noundef %9, i32 noundef 1, ptr noundef %10, ptr noundef null)
  store ptr %11, ptr %6, align 8, !tbaa !10
  %12 = load ptr, ptr %6, align 8, !tbaa !10
  %13 = icmp ne ptr %12, null
  br i1 %13, label %14, label %42

14:                                               ; preds = %2
  %15 = load ptr, ptr %6, align 8, !tbaa !10
  %16 = getelementptr inbounds nuw %struct.gvplugin_available_s, ptr %15, i32 0, i32 4
  %17 = load ptr, ptr %16, align 8, !tbaa !12
  store ptr %17, ptr %7, align 8, !tbaa !16
  %18 = load ptr, ptr %7, align 8, !tbaa !16
  %19 = getelementptr inbounds nuw %struct.gvplugin_installed_t, ptr %18, i32 0, i32 1
  %20 = load ptr, ptr %19, align 8, !tbaa !17
  %21 = load ptr, ptr %4, align 8, !tbaa !3
  %22 = getelementptr inbounds nuw %struct.GVC_s, ptr %21, i32 0, i32 17
  %23 = getelementptr inbounds nuw %struct.gvplugin_active_layout_s, ptr %22, i32 0, i32 3
  store ptr %20, ptr %23, align 8, !tbaa !19
  %24 = load ptr, ptr %7, align 8, !tbaa !16
  %25 = getelementptr inbounds nuw %struct.gvplugin_installed_t, ptr %24, i32 0, i32 3
  %26 = load ptr, ptr %25, align 8, !tbaa !39
  %27 = load ptr, ptr %4, align 8, !tbaa !3
  %28 = getelementptr inbounds nuw %struct.GVC_s, ptr %27, i32 0, i32 17
  %29 = getelementptr inbounds nuw %struct.gvplugin_active_layout_s, ptr %28, i32 0, i32 0
  store ptr %26, ptr %29, align 8, !tbaa !40
  %30 = load ptr, ptr %7, align 8, !tbaa !16
  %31 = getelementptr inbounds nuw %struct.gvplugin_installed_t, ptr %30, i32 0, i32 0
  %32 = load i32, ptr %31, align 8, !tbaa !41
  %33 = load ptr, ptr %4, align 8, !tbaa !3
  %34 = getelementptr inbounds nuw %struct.GVC_s, ptr %33, i32 0, i32 17
  %35 = getelementptr inbounds nuw %struct.gvplugin_active_layout_s, ptr %34, i32 0, i32 1
  store i32 %32, ptr %35, align 8, !tbaa !42
  %36 = load ptr, ptr %7, align 8, !tbaa !16
  %37 = getelementptr inbounds nuw %struct.gvplugin_installed_t, ptr %36, i32 0, i32 4
  %38 = load ptr, ptr %37, align 8, !tbaa !43
  %39 = load ptr, ptr %4, align 8, !tbaa !3
  %40 = getelementptr inbounds nuw %struct.GVC_s, ptr %39, i32 0, i32 17
  %41 = getelementptr inbounds nuw %struct.gvplugin_active_layout_s, ptr %40, i32 0, i32 2
  store ptr %38, ptr %41, align 8, !tbaa !44
  store i32 300, ptr %3, align 4
  store i32 1, ptr %8, align 4
  br label %43

42:                                               ; preds = %2
  store i32 999, ptr %3, align 4
  store i32 1, ptr %8, align 4
  br label %43

43:                                               ; preds = %42, %14
  call void @llvm.lifetime.end.p0(i64 8, ptr %7) #3
  call void @llvm.lifetime.end.p0(i64 8, ptr %6) #3
  %44 = load i32, ptr %3, align 4
  ret i32 %44
}