; Function Attrs: nounwind uwtable
define range(i32 300, 1000) i32 @gvlayout_select(ptr noundef %0, ptr noundef %1) local_unnamed_addr #0 {
  %3 = tail call ptr @gvplugin_load(ptr noundef %0, i32 noundef 1, ptr noundef %1, ptr noundef null) #2
  %.not = icmp eq ptr %3, null
  br i1 %.not, label %18, label %4

4:                                                ; preds = %2
  %5 = getelementptr inbounds nuw i8, ptr %3, i64 32
  %6 = load ptr, ptr %5, align 8, !tbaa !3
  %7 = getelementptr inbounds nuw i8, ptr %6, i64 8
  %8 = load ptr, ptr %7, align 8, !tbaa !12
  %9 = getelementptr inbounds nuw i8, ptr %0, i64 312
  %10 = getelementptr inbounds nuw i8, ptr %0, i64 336
  store ptr %8, ptr %10, align 8, !tbaa !14
  %11 = getelementptr inbounds nuw i8, ptr %6, i64 24
  %12 = load ptr, ptr %11, align 8, !tbaa !34
  store ptr %12, ptr %9, align 8, !tbaa !35
  %13 = load i32, ptr %6, align 8, !tbaa !36
  %14 = getelementptr inbounds nuw i8, ptr %0, i64 320
  store i32 %13, ptr %14, align 8, !tbaa !37
  %15 = getelementptr inbounds nuw i8, ptr %6, i64 32
  %16 = load ptr, ptr %15, align 8, !tbaa !38
  %17 = getelementptr inbounds nuw i8, ptr %0, i64 328
  store ptr %16, ptr %17, align 8, !tbaa !39
  br label %18

18:                                               ; preds = %2, %4
  %.0 = phi i32 [ 300, %4 ], [ 999, %2 ]
  ret i32 %.0
}